; Function Attrs: mustprogress uwtable
define hidden void @_ZNK11ext_numeral7displayERSo(ptr noundef nonnull align 8 dereferenceable(40) %0, ptr noundef nonnull align 8 dereferenceable(8) %1) local_unnamed_addr #3 align 2 personality ptr @__gxx_personality_v0 {
  %3 = alloca %"class.std::__cxx11::basic_string", align 8
  %4 = load i32, ptr %0, align 8, !tbaa !3
  switch i32 %4, label %32 [
    i32 0, label %5
    i32 1, label %7
    i32 2, label %30
  ]

5:                                                ; preds = %2
  %6 = tail call noundef nonnull align 8 dereferenceable(8) ptr @_ZSt16__ostream_insertIcSt11char_traitsIcEERSt13basic_ostreamIT_T0_ES6_PKS3_l(ptr noundef nonnull align 8 dereferenceable(8) %1, ptr noundef nonnull @.str.2, i64 noundef 3)
  br label %32

7:                                                ; preds = %2
  %8 = getelementptr inbounds nuw i8, ptr %0, i64 8
  call void @llvm.lifetime.start.p0(i64 32, ptr nonnull %3) #22
  %9 = load ptr, ptr @_ZN8rational13g_mpq_managerE, align 8, !tbaa !14
  call void @_ZNK11mpq_managerILb1EE9to_stringB5cxx11ERK3mpq(ptr dead_on_unwind nonnull writable sret(%"class.std::__cxx11::basic_string") align 8 %3, ptr noundef nonnull align 8 dereferenceable(728) %9, ptr noundef nonnull align 8 dereferenceable(32) %8)
  %10 = load ptr, ptr %3, align 8, !tbaa !23
  %11 = getelementptr inbounds nuw i8, ptr %3, i64 8
  %12 = load i64, ptr %11, align 8, !tbaa !28
  %13 = invoke noundef nonnull align 8 dereferenceable(8) ptr @_ZSt16__ostream_insertIcSt11char_traitsIcEERSt13basic_ostreamIT_T0_ES6_PKS3_l(ptr noundef nonnull align 8 dereferenceable(8) %1, ptr noundef %10, i64 noundef %12)
          to label %_ZStlsIcSt11char_traitsIcESaIcEERSt13basic_ostreamIT_T0_ES7_RKNSt7__cxx1112basic_stringIS4_S5_T1_EE.exit.i unwind label %21

_ZStlsIcSt11char_traitsIcESaIcEERSt13basic_ostreamIT_T0_ES7_RKNSt7__cxx1112basic_stringIS4_S5_T1_EE.exit.i: ; preds = %7
  %14 = load ptr, ptr %3, align 8, !tbaa !23
  %15 = getelementptr inbounds nuw i8, ptr %3, i64 16
  %16 = icmp eq ptr %14, %15
  br i1 %16, label %_ZNKSt7__cxx1112basic_stringIcSt11char_traitsIcESaIcEE11_M_is_localEv.exit.thread.i.i.i, label %_ZNKSt7__cxx1112basic_stringIcSt11char_traitsIcESaIcEE11_M_is_localEv.exit.i.i.i

_ZNKSt7__cxx1112basic_stringIcSt11char_traitsIcESaIcEE11_M_is_localEv.exit.thread.i.i.i: ; preds = %_ZStlsIcSt11char_traitsIcESaIcEERSt13basic_ostreamIT_T0_ES7_RKNSt7__cxx1112basic_stringIS4_S5_T1_EE.exit.i
  %17 = load i64, ptr %11, align 8, !tbaa !28
  %18 = icmp ult i64 %17, 16
  call void @llvm.assume(i1 %18)
  br label %_ZlsRSoRK8rational.exit

_ZNKSt7__cxx1112basic_stringIcSt11char_traitsIcESaIcEE11_M_is_localEv.exit.i.i.i: ; preds = %_ZStlsIcSt11char_traitsIcESaIcEERSt13basic_ostreamIT_T0_ES7_RKNSt7__cxx1112basic_stringIS4_S5_T1_EE.exit.i
  %19 = load i64, ptr %15, align 8, !tbaa !29
  %20 = add i64 %19, 1
  call void @_ZdlPvm(ptr noundef %14, i64 noundef %20) #24
  br label %_ZlsRSoRK8rational.exit

21:                                               ; preds = %7
  %22 = landingpad { ptr, i32 }
          cleanup
  %23 = load ptr, ptr %3, align 8, !tbaa !23
  %24 = getelementptr inbounds nuw i8, ptr %3, i64 16
  %25 = icmp eq ptr %23, %24
  br i1 %25, label %_ZNKSt7__cxx1112basic_stringIcSt11char_traitsIcESaIcEE11_M_is_localEv.exit.thread.i.i4.i, label %_ZNKSt7__cxx1112basic_stringIcSt11char_traitsIcESaIcEE11_M_is_localEv.exit.i.i3.i

_ZNKSt7__cxx1112basic_stringIcSt11char_traitsIcESaIcEE11_M_is_localEv.exit.thread.i.i4.i: ; preds = %21
  %26 = load i64, ptr %11, align 8, !tbaa !28
  %27 = icmp ult i64 %26, 16
  call void @llvm.assume(i1 %27)
  br label %_ZNSt7__cxx1112basic_stringIcSt11char_traitsIcESaIcEED2Ev.exit5.i

_ZNKSt7__cxx1112basic_stringIcSt11char_traitsIcESaIcEE11_M_is_localEv.exit.i.i3.i: ; preds = %21
  %28 = load i64, ptr %24, align 8, !tbaa !29
  %29 = add i64 %28, 1
  call void @_ZdlPvm(ptr noundef %23, i64 noundef %29) #24
  br label %_ZNSt7__cxx1112basic_stringIcSt11char_traitsIcESaIcEED2Ev.exit5.i

_ZNSt7__cxx1112basic_stringIcSt11char_traitsIcESaIcEED2Ev.exit5.i: ; preds = %_ZNKSt7__cxx1112basic_stringIcSt11char_traitsIcESaIcEE11_M_is_localEv.exit.i.i3.i, %_ZNKSt7__cxx1112basic_stringIcSt11char_traitsIcESaIcEE11_M_is_localEv.exit.thread.i.i4.i
  call void @llvm.lifetime.end.p0(i64 32, ptr nonnull %3) #22
  resume { ptr, i32 } %22

_ZlsRSoRK8rational.exit:                          ; preds = %_ZNKSt7__cxx1112basic_stringIcSt11char_traitsIcESaIcEE11_M_is_localEv.exit.thread.i.i.i, %_ZNKSt7__cxx1112basic_stringIcSt11char_traitsIcESaIcEE11_M_is_localEv.exit.i.i.i
  call void @llvm.lifetime.end.p0(i64 32, ptr nonnull %3) #22
  br label %32

30:                                               ; preds = %2
  %31 = tail call noundef nonnull align 8 dereferenceable(8) ptr @_ZSt16__ostream_insertIcSt11char_traitsIcEERSt13basic_ostreamIT_T0_ES6_PKS3_l(ptr noundef nonnull align 8 dereferenceable(8) %1, ptr noundef nonnull @.str.3, i64 noundef 2)
  br label %32

32:                                               ; preds = %30, %_ZlsRSoRK8rational.exit, %5, %2
  ret void
}